; Function Attrs: nounwind uwtable
define dso_local void @ExecInitMergeTupleSlots(ptr noundef readonly captures(none) %0, ptr noundef captures(none) initializes((72, 89)) %1) local_unnamed_addr #0 {
  %3 = getelementptr inbounds nuw i8, ptr %0, i64 16
  %4 = load ptr, ptr %3, align 8
  %5 = getelementptr inbounds nuw i8, ptr %1, i64 8
  %6 = load ptr, ptr %5, align 8
  %7 = getelementptr inbounds nuw i8, ptr %4, i64 200
  %8 = tail call ptr @table_slot_create(ptr noundef %6, ptr noundef nonnull %7) #9
  %9 = getelementptr inbounds nuw i8, ptr %1, i64 80
  store ptr %8, ptr %9, align 8
  %10 = load ptr, ptr %5, align 8
  %11 = tail call ptr @table_slot_create(ptr noundef %10, ptr noundef nonnull %7) #9
  %12 = getelementptr inbounds nuw i8, ptr %1, i64 72
  store ptr %11, ptr %12, align 8
  %13 = getelementptr inbounds nuw i8, ptr %1, i64 88
  store i8 1, ptr %13, align 8
  ret void
}